target datalayout = "e-m:e-p270:32:32-p271:32:32-p272:64:64-i64:64-i128:128-f80:128-n8:16:32:64-S128"
target triple = "x86_64-pc-linux-gnu"

@ff_vorbis_channel_layout_offsets = external hidden constant [8 x [8 x i8]], align 16

; Function Attrs: nounwind uwtable
define internal i32 @channel_reorder_vorbis(i32 noundef %0, i32 noundef %1) #0 {
  %3 = alloca i32, align 4
  %4 = alloca i32, align 4
  store i32 %0, ptr %3, align 4, !tbaa !11
  store i32 %1, ptr %4, align 4, !tbaa !11
  %5 = load i32, ptr %3, align 4, !tbaa !11
  %6 = sub nsw i32 %5, 1
  %7 = sext i32 %6 to i64
  %8 = getelementptr inbounds [8 x [8 x i8]], ptr @ff_vorbis_channel_layout_offsets, i64 0, i64 %7
  %9 = load i32, ptr %4, align 4, !tbaa !11
  %10 = sext i32 %9 to i64
  %11 = getelementptr inbounds [8 x i8], ptr %8, i64 0, i64 %10
  %12 = load i8, ptr %11, align 1, !tbaa !13
  %13 = zext i8 %12 to i32
  ret i32 %13
}